; Function Attrs: mustprogress uwtable
define i32 @uloc_forLanguageTag_77(ptr noundef readonly captures(none) %0, ptr noundef %1, i32 noundef %2, ptr noundef %3, ptr noundef %4) local_unnamed_addr #1 personality ptr @__gxx_personality_v0 {
  %6 = alloca %"class.icu_77::CheckedArrayByteSink", align 8
  %7 = load i32, ptr %4, align 4, !tbaa !13
  %8 = icmp slt i32 %7, 1
  br i1 %8, label %9, label %"_ZN6icu_7712ByteSinkUtil28viaByteSinkToTerminatedCharsIZ22uloc_forLanguageTag_77E3$_0vEEiPciOT_R10UErrorCode.exit"

9:                                                ; preds = %5
  call void @llvm.lifetime.start.p0(i64 32, ptr nonnull %6) #17
  call void @_ZN6icu_7720CheckedArrayByteSinkC1EPci(ptr noundef nonnull align 8 dereferenceable(29) %6, ptr noundef %1, i32 noundef %2)
  invoke void @_Z25ulocimp_forLanguageTag_77PKciRN6icu_778ByteSinkEPiR10UErrorCode(ptr noundef readonly %0, i32 noundef -1, ptr noundef nonnull align 8 dereferenceable(8) %6, ptr noundef %3, ptr noundef nonnull align 4 dereferenceable(4) %4)
          to label %"_ZZ22uloc_forLanguageTag_77ENK3$_0clERN6icu_778ByteSinkER10UErrorCode.exit.i" unwind label %12

"_ZZ22uloc_forLanguageTag_77ENK3$_0clERN6icu_778ByteSinkER10UErrorCode.exit.i": ; preds = %9
  %10 = load i32, ptr %4, align 4, !tbaa !13
  %11 = icmp slt i32 %10, 1
  br i1 %11, label %14, label %24

12:                                               ; preds = %9
  %13 = landingpad { ptr, i32 }
          cleanup
  br label %25

14:                                               ; preds = %"_ZZ22uloc_forLanguageTag_77ENK3$_0clERN6icu_778ByteSinkER10UErrorCode.exit.i"
  %15 = getelementptr inbounds nuw i8, ptr %6, i64 24
  %16 = load i32, ptr %15, align 8, !tbaa !24
  %17 = getelementptr inbounds nuw i8, ptr %6, i64 28
  %18 = load i8, ptr %17, align 4, !tbaa !27
  %.not17.i = icmp eq i8 %18, 0
  br i1 %.not17.i, label %20, label %19

19:                                               ; preds = %14
  store i32 15, ptr %4, align 4, !tbaa !13
  br label %24

20:                                               ; preds = %14
  %21 = invoke i32 @u_terminateChars_77(ptr noundef %1, i32 noundef %2, i32 noundef %16, ptr noundef nonnull align 4 dereferenceable(4) %4)
          to label %24 unwind label %22

22:                                               ; preds = %20
  %23 = landingpad { ptr, i32 }
          cleanup
  br label %25

24:                                               ; preds = %20, %19, %"_ZZ22uloc_forLanguageTag_77ENK3$_0clERN6icu_778ByteSinkER10UErrorCode.exit.i"
  %.1.i = phi i32 [ 0, %"_ZZ22uloc_forLanguageTag_77ENK3$_0clERN6icu_778ByteSinkER10UErrorCode.exit.i" ], [ %16, %19 ], [ %21, %20 ]
  call void @_ZN6icu_7720CheckedArrayByteSinkD1Ev(ptr noundef nonnull align 8 dereferenceable(29) %6) #17
  call void @llvm.lifetime.end.p0(i64 32, ptr nonnull %6) #17
  br label %"_ZN6icu_7712ByteSinkUtil28viaByteSinkToTerminatedCharsIZ22uloc_forLanguageTag_77E3$_0vEEiPciOT_R10UErrorCode.exit"

25:                                               ; preds = %22, %12
  %.pn.i = phi { ptr, i32 } [ %23, %22 ], [ %13, %12 ]
  call void @_ZN6icu_7720CheckedArrayByteSinkD1Ev(ptr noundef nonnull align 8 dereferenceable(29) %6) #17
  call void @llvm.lifetime.end.p0(i64 32, ptr nonnull %6) #17
  resume { ptr, i32 } %.pn.i

"_ZN6icu_7712ByteSinkUtil28viaByteSinkToTerminatedCharsIZ22uloc_forLanguageTag_77E3$_0vEEiPciOT_R10UErrorCode.exit": ; preds = %5, %24
  %.0.i = phi i32 [ %.1.i, %24 ], [ 0, %5 ]
  ret i32 %.0.i
}